target datalayout = "e-m:e-p270:32:32-p271:32:32-p272:64:64-i64:64-i128:128-f80:128-n8:16:32:64-S128"
target triple = "x86_64-pc-linux-gnu"

%struct.slurm_conf_t = type { i64, ptr, i16, ptr, ptr, ptr, ptr, ptr, i16, ptr, ptr, ptr, ptr, ptr, ptr, ptr, i16, ptr, ptr, ptr, ptr, i16, ptr, ptr, ptr, i64, ptr, ptr, ptr, ptr, i16, ptr, ptr, i16, i32, ptr, i32, ptr, i32, i32, ptr, ptr, i64, i64, ptr, i16, i16, ptr, i32, i32, ptr, i32, ptr, i32, i16, i16, i16, ptr, i16, i16, ptr, ptr, i32, i16, i16, ptr, i32, i16, ptr, ptr, ptr, ptr, i16, ptr, ptr, ptr, ptr, i32, ptr, ptr, ptr, ptr, i16, i16, ptr, i32, i32, i32, i16, i16, ptr, ptr, i16, ptr, ptr, i32, i32, i32, i32, i32, i64, i32, i32, i16, ptr, ptr, i32, ptr, ptr, ptr, i16, i32, ptr, ptr, i16, ptr, ptr, i32, i16, ptr, ptr, ptr, ptr, i32, i32, i16, i16, i32, ptr, i16, ptr, i32, i32, i32, i32, i32, i32, ptr, i16, ptr, ptr, i32, i16, ptr, i32, i16, i16, ptr, ptr, ptr, i16, ptr, ptr, ptr, ptr, i16, i16, ptr, i16, ptr, i16, ptr, i16, ptr, i16, ptr, ptr, ptr, ptr, i16, ptr, ptr, ptr, i32, ptr, i32, ptr, ptr, i16, ptr, ptr, i32, i16, ptr, ptr, i16, i16, ptr, i16, ptr, ptr, ptr, i32, ptr, i16, i16, ptr, ptr, ptr, ptr, ptr, ptr, ptr, ptr, i16, i32, i16, ptr, ptr, ptr, ptr, i32, ptr, ptr, ptr, i16, ptr, ptr, ptr, i16, ptr, i16, ptr, i16, i16, ptr }
%struct.dirent = type { i64, i64, i16, i8, [256 x i8] }

@slurm_conf = external global %struct.slurm_conf_t, align 8
@.str.22 = private unnamed_addr constant [24 x i8] c"%s: No plugin dir given\00", align 1
@__func__.plugin_get_plugins_of_type = private unnamed_addr constant [27 x i8] c"plugin_get_plugins_of_type\00", align 1
@.str.23 = private unnamed_addr constant [4 x i8] c"%s_\00", align 1
@.str.24 = private unnamed_addr constant [4 x i8] c"%s/\00", align 1
@.str.25 = private unnamed_addr constant [2 x i8] c":\00", align 1
@.str.26 = private unnamed_addr constant [32 x i8] c"cannot open plugin directory %s\00", align 1
@.str.27 = private unnamed_addr constant [4 x i8] c".so\00", align 1
@.str.28 = private unnamed_addr constant [5 x i8] c"%s%s\00", align 1

; Function Attrs: nounwind uwtable
define dso_local ptr @plugin_get_plugins_of_type(ptr noundef %0) #0 {
  %2 = alloca ptr, align 8
  %3 = alloca ptr, align 8
  %4 = alloca ptr, align 8
  %5 = alloca ptr, align 8
  %6 = alloca ptr, align 8
  %7 = alloca ptr, align 8
  %8 = alloca ptr, align 8
  %9 = alloca ptr, align 8
  %10 = alloca ptr, align 8
  %11 = alloca i32, align 4
  %12 = alloca [128 x i8], align 16
  %13 = alloca i32, align 4
  store ptr %0, ptr %2, align 8
  call void @llvm.lifetime.start.p0(i64 8, ptr %3) #7
  store ptr null, ptr %3, align 8
  call void @llvm.lifetime.start.p0(i64 8, ptr %4) #7
  store ptr null, ptr %4, align 8
  call void @llvm.lifetime.start.p0(i64 8, ptr %5) #7
  store ptr null, ptr %5, align 8
  call void @llvm.lifetime.start.p0(i64 8, ptr %6) #7
  store ptr null, ptr %6, align 8
  call void @llvm.lifetime.start.p0(i64 8, ptr %7) #7
  store ptr null, ptr %7, align 8
  call void @llvm.lifetime.start.p0(i64 8, ptr %8) #7
  store ptr null, ptr %8, align 8
  call void @llvm.lifetime.start.p0(i64 8, ptr %9) #7
  call void @llvm.lifetime.start.p0(i64 8, ptr %10) #7
  call void @llvm.lifetime.start.p0(i64 4, ptr %11) #7
  %14 = load ptr, ptr getelementptr inbounds nuw (%struct.slurm_conf_t, ptr @slurm_conf, i32 0, i32 115), align 8
  %15 = call ptr @xstrdup(ptr noundef %14)
  store ptr %15, ptr %4, align 8
  %16 = icmp ne ptr %15, null
  br i1 %16, label %19, label %17

17:                                               ; preds = %1
  %18 = call i32 (ptr, ...) @error(ptr noundef @.str.22, ptr noundef @__func__.plugin_get_plugins_of_type)
  br label %106

19:                                               ; preds = %1
  %20 = load ptr, ptr %2, align 8
  %21 = call ptr (ptr, ...) @xstrdup_printf(ptr noundef @.str.23, ptr noundef %20)
  store ptr %21, ptr %7, align 8
  %22 = load ptr, ptr %2, align 8
  %23 = call ptr (ptr, ...) @xstrdup_printf(ptr noundef @.str.24, ptr noundef %22)
  store ptr %23, ptr %8, align 8
  %24 = load ptr, ptr %4, align 8
  %25 = call ptr @strtok_r(ptr noundef %24, ptr noundef @.str.25, ptr noundef %6) #7
  store ptr %25, ptr %5, align 8
  br label %26

26:                                               ; preds = %101, %19
  %27 = load ptr, ptr %5, align 8
  %28 = icmp ne ptr %27, null
  br i1 %28, label %29, label %105

29:                                               ; preds = %26
  %30 = load ptr, ptr %5, align 8
  %31 = call ptr @opendir(ptr noundef %30)
  store ptr %31, ptr %9, align 8
  %32 = icmp ne ptr %31, null
  br i1 %32, label %36, label %33

33:                                               ; preds = %29
  %34 = load ptr, ptr %5, align 8
  %35 = call i32 (ptr, ...) @error(ptr noundef @.str.26, ptr noundef %34)
  br label %106

36:                                               ; preds = %29
  br label %37

37:                                               ; preds = %100, %98, %36
  br label %38

38:                                               ; preds = %37
  call void @llvm.lifetime.start.p0(i64 128, ptr %12) #7
  %39 = load ptr, ptr %9, align 8
  %40 = call ptr @readdir(ptr noundef %39)
  store ptr %40, ptr %10, align 8
  %41 = icmp ne ptr %40, null
  br i1 %41, label %43, label %42

42:                                               ; preds = %38
  store i32 6, ptr %13, align 4
  br label %98

43:                                               ; preds = %38
  %44 = load ptr, ptr %10, align 8
  %45 = getelementptr inbounds nuw %struct.dirent, ptr %44, i32 0, i32 4
  %46 = getelementptr inbounds [256 x i8], ptr %45, i64 0, i64 0
  %47 = load ptr, ptr %7, align 8
  %48 = load ptr, ptr %7, align 8
  %49 = call i64 @strlen(ptr noundef %48) #10
  %50 = call i32 @xstrncmp(ptr noundef %46, ptr noundef %47, i64 noundef %49)
  %51 = icmp ne i32 %50, 0
  br i1 %51, label %52, label %53

52:                                               ; preds = %43
  store i32 5, ptr %13, align 4
  br label %98, !llvm.loop !15

53:                                               ; preds = %43
  %54 = load ptr, ptr %10, align 8
  %55 = getelementptr inbounds nuw %struct.dirent, ptr %54, i32 0, i32 4
  %56 = getelementptr inbounds [256 x i8], ptr %55, i64 0, i64 0
  %57 = call i64 @strlen(ptr noundef %56) #10
  %58 = trunc i64 %57 to i32
  store i32 %58, ptr %11, align 4
  %59 = load i32, ptr %11, align 4
  %60 = sub nsw i32 %59, 3
  store i32 %60, ptr %11, align 4
  %61 = load ptr, ptr %10, align 8
  %62 = getelementptr inbounds nuw %struct.dirent, ptr %61, i32 0, i32 4
  %63 = getelementptr inbounds [256 x i8], ptr %62, i64 0, i64 0
  %64 = load i32, ptr %11, align 4
  %65 = sext i32 %64 to i64
  %66 = getelementptr inbounds i8, ptr %63, i64 %65
  %67 = call i32 @xstrcmp(ptr noundef %66, ptr noundef @.str.27)
  %68 = icmp ne i32 %67, 0
  br i1 %68, label %69, label %70

69:                                               ; preds = %53
  store i32 5, ptr %13, align 4
  br label %98, !llvm.loop !15

70:                                               ; preds = %53
  %71 = load i32, ptr %11, align 4
  %72 = add nsw i32 %71, 1
  store i32 %72, ptr %11, align 4
  %73 = getelementptr inbounds [128 x i8], ptr %12, i64 0, i64 0
  %74 = load i32, ptr %11, align 4
  %75 = sext i32 %74 to i64
  %76 = load ptr, ptr %8, align 8
  %77 = load ptr, ptr %10, align 8
  %78 = getelementptr inbounds nuw %struct.dirent, ptr %77, i32 0, i32 4
  %79 = getelementptr inbounds [256 x i8], ptr %78, i64 0, i64 0
  %80 = load ptr, ptr %8, align 8
  %81 = call i64 @strlen(ptr noundef %80) #10
  %82 = getelementptr inbounds nuw i8, ptr %79, i64 %81
  %83 = call i32 (ptr, i64, ptr, ...) @snprintf(ptr noundef %73, i64 noundef %75, ptr noundef @.str.28, ptr noundef %76, ptr noundef %82) #7
  %84 = load ptr, ptr %3, align 8
  %85 = icmp ne ptr %84, null
  br i1 %85, label %88, label %86

86:                                               ; preds = %70
  %87 = call ptr @list_create(ptr noundef @xfree_ptr)
  store ptr %87, ptr %3, align 8
  br label %88

88:                                               ; preds = %86, %70
  %89 = load ptr, ptr %3, align 8
  %90 = getelementptr inbounds [128 x i8], ptr %12, i64 0, i64 0
  %91 = call ptr @list_find_first(ptr noundef %89, ptr noundef @slurm_find_char_in_list, ptr noundef %90)
  %92 = icmp ne ptr %91, null
  br i1 %92, label %97, label %93

93:                                               ; preds = %88
  %94 = load ptr, ptr %3, align 8
  %95 = getelementptr inbounds [128 x i8], ptr %12, i64 0, i64 0
  %96 = call ptr @xstrdup(ptr noundef %95)
  call void @list_append(ptr noundef %94, ptr noundef %96)
  br label %97

97:                                               ; preds = %93, %88
  store i32 0, ptr %13, align 4
  br label %98

98:                                               ; preds = %97, %69, %52, %42
  call void @llvm.lifetime.end.p0(i64 128, ptr %12) #7
  %99 = load i32, ptr %13, align 4
  switch i32 %99, label %108 [
    i32 0, label %100
    i32 6, label %101
    i32 5, label %37
  ]

100:                                              ; preds = %98
  br label %37, !llvm.loop !15

101:                                              ; preds = %98
  %102 = load ptr, ptr %9, align 8
  %103 = call i32 @closedir(ptr noundef %102)
  %104 = call ptr @strtok_r(ptr noundef null, ptr noundef @.str.25, ptr noundef %6) #7
  store ptr %104, ptr %5, align 8
  br label %26, !llvm.loop !16

105:                                              ; preds = %26
  br label %106

106:                                              ; preds = %105, %33, %17
  call void @slurm_xfree(ptr noundef %4)
  call void @slurm_xfree(ptr noundef %7)
  call void @slurm_xfree(ptr noundef %8)
  %107 = load ptr, ptr %3, align 8
  store i32 1, ptr %13, align 4
  call void @llvm.lifetime.end.p0(i64 4, ptr %11) #7
  call void @llvm.lifetime.end.p0(i64 8, ptr %10) #7
  call void @llvm.lifetime.end.p0(i64 8, ptr %9) #7
  call void @llvm.lifetime.end.p0(i64 8, ptr %8) #7
  call void @llvm.lifetime.end.p0(i64 8, ptr %7) #7
  call void @llvm.lifetime.end.p0(i64 8, ptr %6) #7
  call void @llvm.lifetime.end.p0(i64 8, ptr %5) #7
  call void @llvm.lifetime.end.p0(i64 8, ptr %4) #7
  call void @llvm.lifetime.end.p0(i64 8, ptr %3) #7
  ret ptr %107

108:                                              ; preds = %98
  unreachable
}