; Function Attrs: nounwind uwtable
define dso_local ptr @plugin_get_plugins_of_type(ptr noundef %0) local_unnamed_addr #0 {
  %2 = alloca ptr, align 8
  %3 = alloca ptr, align 8
  %4 = alloca ptr, align 8
  %5 = alloca ptr, align 8
  %6 = alloca [128 x i8], align 16
  call void @llvm.lifetime.start.p0(i64 8, ptr nonnull %2) #10
  call void @llvm.lifetime.start.p0(i64 8, ptr nonnull %3) #10
  store ptr null, ptr %3, align 8
  call void @llvm.lifetime.start.p0(i64 8, ptr nonnull %4) #10
  store ptr null, ptr %4, align 8
  call void @llvm.lifetime.start.p0(i64 8, ptr nonnull %5) #10
  store ptr null, ptr %5, align 8
  %7 = load ptr, ptr getelementptr inbounds nuw (i8, ptr @slurm_conf, i64 776), align 8
  %8 = tail call ptr @xstrdup(ptr noundef %7) #10
  store ptr %8, ptr %2, align 8
  %.not = icmp eq ptr %8, null
  br i1 %.not, label %9, label %11

9:                                                ; preds = %1
  %10 = tail call i32 (ptr, ...) @error(ptr noundef nonnull @.str.22, ptr noundef nonnull @__func__.plugin_get_plugins_of_type) #10
  br label %.loopexit

11:                                               ; preds = %1
  %12 = tail call ptr (ptr, ...) @xstrdup_printf(ptr noundef nonnull @.str.23, ptr noundef %0) #10
  store ptr %12, ptr %4, align 8
  %13 = tail call ptr (ptr, ...) @xstrdup_printf(ptr noundef nonnull @.str.24, ptr noundef %0) #10
  store ptr %13, ptr %5, align 8
  %14 = call ptr @strtok_r(ptr noundef nonnull %8, ptr noundef nonnull @.str.25, ptr noundef nonnull %3) #10
  %.not2239 = icmp eq ptr %14, null
  br i1 %.not2239, label %.loopexit, label %.lr.ph43

.lr.ph43:                                         ; preds = %11, %._crit_edge
  %.141 = phi ptr [ %.2.lcssa, %._crit_edge ], [ null, %11 ]
  %.02040 = phi ptr [ %45, %._crit_edge ], [ %14, %11 ]
  %15 = call ptr @opendir(ptr noundef nonnull %.02040)
  %.not23 = icmp eq ptr %15, null
  br i1 %.not23, label %17, label %.preheader

.preheader:                                       ; preds = %.lr.ph43
  call void @llvm.lifetime.start.p0(i64 128, ptr nonnull %6) #10
  %16 = call ptr @readdir(ptr noundef nonnull %15) #10
  %.not2437 = icmp eq ptr %16, null
  br i1 %.not2437, label %._crit_edge, label %.lr.ph

17:                                               ; preds = %.lr.ph43
  %18 = call i32 (ptr, ...) @error(ptr noundef nonnull @.str.26, ptr noundef nonnull %.02040) #10
  br label %.loopexit

.lr.ph:                                           ; preds = %.preheader, %42
  %19 = phi ptr [ %43, %42 ], [ %16, %.preheader ]
  %.238 = phi ptr [ %.3, %42 ], [ %.141, %.preheader ]
  %20 = getelementptr inbounds nuw i8, ptr %19, i64 19
  %21 = load ptr, ptr %4, align 8
  %22 = call i64 @strlen(ptr noundef nonnull dereferenceable(1) %21) #13
  %23 = call i32 @xstrncmp(ptr noundef nonnull %20, ptr noundef nonnull %21, i64 noundef %22) #10
  %.not25 = icmp eq i32 %23, 0
  br i1 %.not25, label %24, label %42, !llvm.loop !13

24:                                               ; preds = %.lr.ph
  %25 = call i64 @strlen(ptr noundef nonnull dereferenceable(1) %20) #13
  %26 = shl i64 %25, 32
  %sext = add i64 %26, -12884901888
  %27 = ashr exact i64 %sext, 32
  %28 = getelementptr inbounds i8, ptr %20, i64 %27
  %29 = call i32 @xstrcmp(ptr noundef nonnull %28, ptr noundef nonnull @.str.27) #10
  %.not26 = icmp eq i32 %29, 0
  br i1 %.not26, label %30, label %42, !llvm.loop !13

30:                                               ; preds = %24
  %sext27 = add i64 %26, -8589934592
  %31 = ashr exact i64 %sext27, 32
  %32 = load ptr, ptr %5, align 8
  %33 = call i64 @strlen(ptr noundef nonnull dereferenceable(1) %32) #13
  %34 = getelementptr inbounds nuw i8, ptr %20, i64 %33
  %35 = call i32 (ptr, i64, ptr, ...) @snprintf(ptr noundef nonnull %6, i64 noundef %31, ptr noundef nonnull @.str.28, ptr noundef nonnull %32, ptr noundef nonnull %34) #10
  %.not28 = icmp eq ptr %.238, null
  br i1 %.not28, label %36, label %38

36:                                               ; preds = %30
  %37 = call ptr @list_create(ptr noundef nonnull @xfree_ptr) #10
  br label %38

38:                                               ; preds = %36, %30
  %.4 = phi ptr [ %.238, %30 ], [ %37, %36 ]
  %39 = call ptr @list_find_first(ptr noundef %.4, ptr noundef nonnull @slurm_find_char_in_list, ptr noundef nonnull %6) #10
  %.not29 = icmp eq ptr %39, null
  br i1 %.not29, label %40, label %42

40:                                               ; preds = %38
  %41 = call ptr @xstrdup(ptr noundef nonnull %6) #10
  call void @list_append(ptr noundef %.4, ptr noundef %41) #10
  br label %42

42:                                               ; preds = %38, %40, %24, %.lr.ph
  %.3 = phi ptr [ %.238, %.lr.ph ], [ %.238, %24 ], [ %.4, %40 ], [ %.4, %38 ]
  call void @llvm.lifetime.end.p0(i64 128, ptr nonnull %6) #10
  call void @llvm.lifetime.start.p0(i64 128, ptr nonnull %6) #10
  %43 = call ptr @readdir(ptr noundef nonnull %15) #10
  %.not24 = icmp eq ptr %43, null
  br i1 %.not24, label %._crit_edge, label %.lr.ph

._crit_edge:                                      ; preds = %42, %.preheader
  %.2.lcssa = phi ptr [ %.141, %.preheader ], [ %.3, %42 ]
  call void @llvm.lifetime.end.p0(i64 128, ptr nonnull %6) #10
  %44 = call i32 @closedir(ptr noundef nonnull %15)
  %45 = call ptr @strtok_r(ptr noundef null, ptr noundef nonnull @.str.25, ptr noundef nonnull %3) #10
  %.not22 = icmp eq ptr %45, null
  br i1 %.not22, label %.loopexit, label %.lr.ph43, !llvm.loop !14

.loopexit:                                        ; preds = %._crit_edge, %11, %17, %9
  %.019 = phi ptr [ %.141, %17 ], [ null, %9 ], [ null, %11 ], [ %.2.lcssa, %._crit_edge ]
  call void @slurm_xfree(ptr noundef nonnull %2) #10
  call void @slurm_xfree(ptr noundef nonnull %4) #10
  call void @slurm_xfree(ptr noundef nonnull %5) #10
  call void @llvm.lifetime.end.p0(i64 8, ptr nonnull %5) #10
  call void @llvm.lifetime.end.p0(i64 8, ptr nonnull %4) #10
  call void @llvm.lifetime.end.p0(i64 8, ptr nonnull %3) #10
  call void @llvm.lifetime.end.p0(i64 8, ptr nonnull %2) #10
  ret ptr %.019
}